; Function Attrs: mustprogress uwtable
define void @_ZNK6icu_779VTimeZone5writeERNS_13UnicodeStringER10UErrorCode(ptr noundef nonnull align 8 dereferenceable(288) %0, ptr noundef nonnull align 8 dereferenceable(64) %1, ptr noundef nonnull align 4 dereferenceable(4) %2) local_unnamed_addr #2 align 2 personality ptr @__gxx_personality_v0 {
  %4 = alloca %"class.icu_77::VTZWriter", align 8
  %5 = getelementptr inbounds nuw i8, ptr %1, i64 8
  %6 = load i16, ptr %5, align 8, !tbaa !9
  %7 = and i16 %6, 1
  %.not.i = icmp eq i16 %7, 0
  %8 = and i16 %6, 30
  %storemerge.i = select i1 %.not.i, i16 %8, i16 2
  store i16 %storemerge.i, ptr %5, align 8, !tbaa !9
  call void @llvm.lifetime.start.p0(i64 8, ptr nonnull %4) #16
  call void @_ZN6icu_779VTZWriterC1ERNS_13UnicodeStringE(ptr noundef nonnull align 8 dereferenceable(8) %4, ptr noundef nonnull align 8 dereferenceable(64) %1)
  invoke void @_ZNK6icu_779VTimeZone5writeERNS_9VTZWriterER10UErrorCode(ptr noundef nonnull align 8 dereferenceable(288) %0, ptr noundef nonnull align 8 dereferenceable(8) %4, ptr noundef nonnull align 4 dereferenceable(4) %2)
          to label %9 unwind label %10

9:                                                ; preds = %3
  call void @_ZN6icu_779VTZWriterD1Ev(ptr noundef nonnull align 8 dereferenceable(8) %4) #16
  call void @llvm.lifetime.end.p0(i64 8, ptr nonnull %4) #16
  ret void

10:                                               ; preds = %3
  %11 = landingpad { ptr, i32 }
          cleanup
  call void @_ZN6icu_779VTZWriterD1Ev(ptr noundef nonnull align 8 dereferenceable(8) %4) #16
  call void @llvm.lifetime.end.p0(i64 8, ptr nonnull %4) #16
  resume { ptr, i32 } %11
}